ccopy_reg
_reconstructor
p0
(cpandas.core.frame
DataFrame
p1
c__builtin__
object
p2
Ntp3
Rp4
g0
(cpandas.core.internals
BlockManager
p5
g2
Ntp6
Rp7
((lp8
cnumpy.core.multiarray
_reconstruct
p9
(cpandas.core.index
Index
p10
(I0
tp11
S'b'
p12
tp13
Rp14
((I1
(I11
tp15
cnumpy
dtype
p16
(S'O8'
p17
I0
I1
tp18
Rp19
(I3
S'|'
p20
NNNI-1
I-1
I63
tp21
bI00
(lp22
S'BASE'
p23
aS'CALL'
p24
aS'CHROM'
p25
aS'HET'
p26
aS'POS'
p27
aS'RECORD'
p28
aS'REF'
p29
aS'SAMPLE'
p30
aS'TYPE'
p31
aS'VAR'
p32
aS'VCFLINE'
p33
atp34
(Ntp35
tp36
bag9
(cpandas.core.index
Int64Index
p37
(I0
tp38
g12
tp39
Rp40
((I1
(I27
tp41
g16
(S'i8'
p42
I0
I1
tp43
Rp44
(I3
S'<'
p45
NNNI-1
I-1
I0
tp46
bI00
S'\x00\x00\x00\x00\x00\x00\x00\x00\x01\x00\x00\x00\x00\x00\x00\x00\x02\x00\x00\x00\x00\x00\x00\x00\x03\x00\x00\x00\x00\x00\x00\x00\x04\x00\x00\x00\x00\x00\x00\x00\x05\x00\x00\x00\x00\x00\x00\x00\x06\x00\x00\x00\x00\x00\x00\x00\x07\x00\x00\x00\x00\x00\x00\x00\x08\x00\x00\x00\x00\x00\x00\x00\t\x00\x00\x00\x00\x00\x00\x00\n\x00\x00\x00\x00\x00\x00\x00\x0b\x00\x00\x00\x00\x00\x00\x00\x0c\x00\x00\x00\x00\x00\x00\x00\r\x00\x00\x00\x00\x00\x00\x00\x0e\x00\x00\x00\x00\x00\x00\x00\x0f\x00\x00\x00\x00\x00\x00\x00\x10\x00\x00\x00\x00\x00\x00\x00\x11\x00\x00\x00\x00\x00\x00\x00\x12\x00\x00\x00\x00\x00\x00\x00\x13\x00\x00\x00\x00\x00\x00\x00\x14\x00\x00\x00\x00\x00\x00\x00\x15\x00\x00\x00\x00\x00\x00\x00\x16\x00\x00\x00\x00\x00\x00\x00\x17\x00\x00\x00\x00\x00\x00\x00\x18\x00\x00\x00\x00\x00\x00\x00\x19\x00\x00\x00\x00\x00\x00\x00\x1a\x00\x00\x00\x00\x00\x00\x00'
p47
tp48
(Ntp49
tp50
ba(lp51
g9
(cnumpy
ndarray
p52
(I0
tp53
g12
tp54
Rp55
(I1
(I2
I27
tp56
g44
I00
S'\x01\x00\x00\x00\x00\x00\x00\x00\x01\x00\x00\x00\x00\x00\x00\x00\x01\x00\x00\x00\x00\x00\x00\x00\x01\x00\x00\x00\x00\x00\x00\x00\x01\x00\x00\x00\x00\x00\x00\x00\x01\x00\x00\x00\x00\x00\x00\x00\x01\x00\x00\x00\x00\x00\x00\x00\x01\x00\x00\x00\x00\x00\x00\x00\x01\x00\x00\x00\x00\x00\x00\x00\x01\x00\x00\x00\x00\x00\x00\x00\x01\x00\x00\x00\x00\x00\x00\x00\x01\x00\x00\x00\x00\x00\x00\x00\x01\x00\x00\x00\x00\x00\x00\x00\x01\x00\x00\x00\x00\x00\x00\x00\x01\x00\x00\x00\x00\x00\x00\x00\x01\x00\x00\x00\x00\x00\x00\x00\x01\x00\x00\x00\x00\x00\x00\x00\x01\x00\x00\x00\x00\x00\x00\x00\x01\x00\x00\x00\x00\x00\x00\x00\x01\x00\x00\x00\x00\x00\x00\x00\x01\x00\x00\x00\x00\x00\x00\x00\x01\x00\x00\x00\x00\x00\x00\x00\x01\x00\x00\x00\x00\x00\x00\x00\x01\x00\x00\x00\x00\x00\x00\x00\x01\x00\x00\x00\x00\x00\x00\x00\x01\x00\x00\x00\x00\x00\x00\x00\x01\x00\x00\x00\x00\x00\x00\x00mn\x00\x00\x00\x00\x00\x00mn\x00\x00\x00\x00\x00\x00mn\x00\x00\x00\x00\x00\x00\xf2\x1e\x00\x00\x00\x00\x00\x00\xf2\x1e\x00\x00\x00\x00\x00\x00\xf2\x1e\x00\x00\x00\x00\x00\x00\x97)\x00\x00\x00\x00\x00\x00\x97)\x00\x00\x00\x00\x00\x00\x97)\x00\x00\x00\x00\x00\x00\xdd7\x00\x00\x00\x00\x00\x00\xdd7\x00\x00\x00\x00\x00\x00\xdd7\x00\x00\x00\x00\x00\x00]\xd1\x00\x00\x00\x00\x00\x00]\xd1\x00\x00\x00\x00\x00\x00]\xd1\x00\x00\x00\x00\x00\x00-\x8a\x00\x00\x00\x00\x00\x00-\x8a\x00\x00\x00\x00\x00\x00-\x8a\x00\x00\x00\x00\x00\x00\xa0\xba\x00\x00\x00\x00\x00\x00\xa0\xba\x00\x00\x00\x00\x00\x00\xa0\xba\x00\x00\x00\x00\x00\x00e\xc2\x00\x00\x00\x00\x00\x00e\xc2\x00\x00\x00\x00\x00\x00e\xc2\x00\x00\x00\x00\x00\x00\x98w\x00\x00\x00\x00\x00\x00\x98w\x00\x00\x00\x00\x00\x00\x98w\x00\x00\x00\x00\x00\x00'
p57
tp58
bag9
(g52
(I0
tp59
g12
tp60
Rp61
(I1
(I2
I27
tp62
g16
(S'b1'
p63
I0
I1
tp64
Rp65
(I3
S'|'
p66
NNNI-1
I-1
I0
tp67
bI00
S'\x00\x00\x00\x01\x01\x00\x00\x00\x00\x00\x00\x01\x00\x00\x00\x00\x00\x00\x00\x00\x00\x00\x00\x00\x00\x00\x00\x01\x01\x01\x01\x01\x01\x01\x01\x01\x01\x01\x01\x01\x01\x01\x01\x01\x01\x01\x01\x01\x01\x01\x01\x01\x01\x01'
p68
tp69
bag9
(g52
(I0
tp70
g12
tp71
Rp72
(I1
(I7
I27
tp73
g19
I00
(lp74
S'T'
p75
ag75
ag75
aS'CA'
p76
ag76
ag76
aS'G'
p77
ag77
ag77
ag75
ag75
ag75
ag77
ag77
ag77
aS'C'
p78
ag78
ag78
aS'A'
p79
ag79
ag79
ag75
ag75
ag75
ag78
ag78
ag78
aS'U00096'
p80
ag80
ag80
aS'U00096'
p81
ag81
ag81
aS'U00096'
p82
ag82
ag82
aS'U00096'
p83
ag83
ag83
aS'U00096'
p84
ag84
ag84
aS'U00096'
p85
ag85
ag85
aS'U00096'
p86
ag86
ag86
aS'U00096'
p87
ag87
ag87
aS'U00096'
p88
ag88
ag88
ag0
(cvcf.parser
_Record
p89
g2
Ntp90
Rp91
(dp92
S'INFO'
p93
(dp94
S'technology.illumina'
p95
(lp96
F1.0
asS'EPP'
p97
(lp98
F14.360200000000001
asS'AF'
p99
(lp100
F1.0
asS'MQMR'
p101
F44.0
sS'DP'
p102
I295
sS'RPP'
p103
(lp104
F6.3010900000000003
asS'EPPR'
p105
F5.1817700000000002
sS'ODDS'
p106
F22.586200000000002
sS'HWE'
p107
F-0.0
sS'MQM'
p108
(lp109
F43.1753
asS'PAIREDR'
p110
F1.0
sS'PAIRED'
p111
(lp112
F0.60481099999999999
asS'XRS'
p113
F0.0
sS'SAP'
p114
(lp115
F3.01776
asS'XRM'
p116
F0.0
sS'RO'
p117
I1
sS'AC'
p118
(lp119
I6
asS'AB'
p120
(lp121
F0.0
asS'XRI'
p122
F0.0
sS'BVAR'
p123
I01
sS'MEANALT'
p124
(lp125
F1.6666700000000001
asS'XAS'
p126
(lp127
F0.00032068800000000002
asS'AO'
p128
(lp129
I291
asS'AN'
p130
I6
sS'ABP'
p131
(lp132
F0.0
asS'XAI'
p133
(lp134
F0.000102422
asS'SRP'
p135
F5.1817700000000002
sS'XAM'
p136
(lp137
F0.00042311099999999999
asS'DPRA'
p138
(lp139
F0.0
asS'EFF'
p140
S'INTRON(MODIFIER||||insA|mRNA||insA.t01|),INTRON(MODIFIER||||insB|mRNA||insB.t01|),INTRON(MODIFIER||||insL|mRNA||insL.t01|)'
p141
sS'RPPR'
p142
F5.1817700000000002
sS'NS'
p143
I3
sS'RUN'
p144
(lp145
I1
asS'CIGAR'
p146
S'1X'
p147
sS'LEN'
p148
(lp149
I1
asS'NUMALT'
p150
I1
sS'TYPE'
p151
S'snp'
p152
ssS'end'
p153
I28269
sS'FORMAT'
p154
S'GT:DP:RO:QR:AO:QA:GL'
p155
sS'alleles'
p156
(lp157
g78
ag75
asS'_sample_indexes'
p158
(dp159
S'recoli_lib3_c31_322A'
p160
I0
sS'recoli_misq_c31_322A'
p161
I2
sS'recoli_lib3_c31_322B'
p162
I1
ssS'POS'
p163
I28269
sS'CHROM'
p164
g80
sS'FILTER'
p165
S'.'
p166
sS'start'
p167
I28268
sS'samples'
p168
(lp169
g0
(cvcf.parser
_Call
p170
g2
Ntp171
Rp172
(dp173
S'sample'
p174
g160
sS'gt_nums'
p175
S'1/1'
p176
sS'data'
p177
(dp178
S'GL'
p179
(lp180
F-107.845
aF-9.3319299999999998
aF0.0
asS'AO'
p181
I31
sS'QA'
p182
I1194
sS'GT'
p183
g176
sS'RO'
p184
I0
sS'DP'
p185
I31
sS'QR'
p186
I0
ssS'site'
p187
g91
sS'called'
p188
I01
sbag0
(g170
g2
Ntp189
Rp190
(dp191
g174
g162
sg175
S'1/1'
p192
sg177
(dp193
g179
(lp194
F-155.101
aF-13.2453
aF0.0
asg181
I44
sg182
I1719
sg183
g192
sg184
I0
sg185
I44
sg186
I0
ssg187
g91
sg188
I01
sbag0
(g170
g2
Ntp195
Rp196
(dp197
g174
g161
sg175
S'1/1'
p198
sg177
(dp199
g179
(lp200
F-710.91099999999994
aF-72.693700000000007
aF-12.58
asg181
I216
sg182
I7834
sg183
g198
sg184
I1
sg185
I220
sg186
I32
ssg187
g91
sg188
I01
sbasS'ALT'
p201
(lp202
g75
asS'REF'
p203
g78
sS'ID'
p204
NsS'QUAL'
p205
F9612.7600000000002
sbag91
ag91
ag0
(g89
g2
Ntp206
Rp207
(dp208
S'INFO'
p209
(dp210
S'technology.illumina'
p211
(lp212
F1.0
asS'EPP'
p213
(lp214
F5.4332900000000004
asS'AF'
p215
(lp216
F0.66666700000000001
asS'MQMR'
p217
F44.0
sS'DP'
p218
I284
sS'RPP'
p219
(lp220
F6.03695
asS'EPPR'
p221
F4.58955
sS'ODDS'
p222
F23.948
sS'HWE'
p223
F-3.0103
sS'MQM'
p224
(lp225
F45.142899999999997
asS'PAIREDR'
p226
F0.86363599999999996
sS'PAIRED'
p227
(lp228
F0.59459499999999998
asS'XRS'
p229
F0.00070326899999999996
sS'SAP'
p230
(lp231
F3.4211200000000002
asS'XRM'
p232
F0.00070326899999999996
sS'RO'
p233
I22
sS'AC'
p234
(lp235
I4
asS'AB'
p236
(lp237
F0.81333299999999997
asS'XRI'
p238
F0.0
sS'BVAR'
p239
I01
sS'MEANALT'
p240
(lp241
F1.3333299999999999
asS'XAS'
p242
(lp243
F0.00073378600000000005
asS'AO'
p244
(lp245
I259
asS'AN'
p246
I6
sS'ABP'
p247
(lp248
F66.967399999999998
asS'XAI'
p249
(lp250
F6.0610399999999998e-05
asS'SRP'
p251
F4.58955
sS'XAM'
p252
(lp253
F0.00079439699999999996
asS'DPRA'
p254
(lp255
F0.0
asS'EFF'
p256
S'FRAME_SHIFT(HIGH||||yaaJ|mRNA||yaaJ.t01|Exon_U00096_6529_7959)'
p257
sS'RPPR'
p258
F50.782699999999998
sS'NS'
p259
I3
sS'RUN'
p260
(lp261
I1
asS'CIGAR'
p262
S'1M1I'
p263
sS'LEN'
p264
(lp265
I1
asS'NUMALT'
p266
I1
sS'TYPE'
p267
S'ins'
p268
ssS'end'
p269
I7922
sS'FORMAT'
p270
S'GT:DP:RO:QR:AO:QA:GL'
p271
sS'alleles'
p272
(lp273
g78
ag76
asS'_sample_indexes'
p274
(dp275
S'recoli_lib3_c31_322A'
p276
I0
sS'recoli_misq_c31_322A'
p277
I2
sS'recoli_lib3_c31_322B'
p278
I1
ssS'POS'
p279
I7922
sS'CHROM'
p280
g81
sS'FILTER'
p281
g166
sS'start'
p282
I7921
sS'samples'
p283
(lp284
g0
(g170
g2
Ntp285
Rp286
(dp287
S'sample'
p288
g276
sS'gt_nums'
p289
S'0/1'
p290
sS'data'
p291
(dp292
S'GL'
p293
(lp294
F-111.755
aF-4.1176199999999996
aF-14.615
asS'AO'
p295
I24
sS'QA'
p296
I2759
sS'GT'
p297
g290
sS'RO'
p298
I4
sS'DP'
p299
I28
sS'QR'
p300
I158
ssS'site'
p301
g207
sS'called'
p302
I01
sbag0
(g170
g2
Ntp303
Rp304
(dp305
g288
g278
sg289
S'0/1'
p306
sg291
(dp307
g293
(lp308
F-175.666
aF-4.43424
aF-35.762999999999998
asg295
I37
sg296
I4254
sg297
g306
sg298
I10
sg299
I47
sg300
I393
ssg301
g207
sg302
I01
sbag0
(g170
g2
Ntp309
Rp310
(dp311
g288
g277
sg289
S'1/1'
p312
sg291
(dp313
g293
(lp314
F-775.59900000000005
aF-57.779899999999998
aF-35.909100000000002
asg295
I198
sg296
I20024
sg297
g312
sg298
I8
sg299
I209
sg300
I292
ssg301
g207
sg302
I01
sbasS'ALT'
p315
(lp316
g76
asS'REF'
p317
g78
sS'ID'
p318
NsS'QUAL'
p319
F10179.799999999999
sbag207
ag207
ag0
(g89
g2
Ntp320
Rp321
(dp322
S'INFO'
p323
(dp324
S'technology.illumina'
p325
(lp326
F1.0
asS'EPP'
p327
(lp328
F10.7311
asS'AF'
p329
(lp330
F1.0
asS'MQMR'
p331
F0.0
sS'DP'
p332
I162
sS'RPP'
p333
(lp334
F20.382100000000001
asS'EPPR'
p335
F0.0
sS'ODDS'
p336
F19.813600000000001
sS'HWE'
p337
F-0.0
sS'MQM'
p338
(lp339
F43.253100000000003
asS'PAIREDR'
p340
F0.0
sS'PAIRED'
p341
(lp342
F0.67283999999999999
asS'XRS'
p343
F0.0
sS'SAP'
p344
(lp345
F36.520699999999998
asS'XRM'
p346
F0.0
sS'RO'
p347
I0
sS'AC'
p348
(lp349
I6
asS'AB'
p350
(lp351
F0.0
asS'XRI'
p352
F0.0
sS'BVAR'
p353
I01
sS'MEANALT'
p354
(lp355
F1.0
asS'XAS'
p356
(lp357
F0.00065072600000000002
asS'AO'
p358
(lp359
I162
asS'AN'
p360
I6
sS'ABP'
p361
(lp362
F0.0
asS'XAI'
p363
(lp364
F0.0
asS'SRP'
p365
F0.0
sS'XAM'
p366
(lp367
F0.00065072600000000002
asS'DPRA'
p368
(lp369
F0.0
asS'EFF'
p370
S'NON_SYNONYMOUS_CODING(MODERATE|MISSENSE|gTc/gCc|V237A|yaaW|mRNA||yaaW.t01|Exon_U00096_10643_11356)'
p371
sS'RPPR'
p372
F0.0
sS'NS'
p373
I3
sS'RUN'
p374
(lp375
I1
asS'CIGAR'
p376
S'1X'
p377
sS'LEN'
p378
(lp379
I1
asS'NUMALT'
p380
I1
sS'TYPE'
p381
S'snp'
p382
ssS'end'
p383
I10647
sS'FORMAT'
p384
S'GT:DP:RO:QR:AO:QA:GL'
p385
sS'alleles'
p386
(lp387
g79
ag77
asS'_sample_indexes'
p388
(dp389
S'recoli_lib3_c31_322A'
p390
I0
sS'recoli_misq_c31_322A'
p391
I2
sS'recoli_lib3_c31_322B'
p392
I1
ssS'POS'
p393
I10647
sS'CHROM'
p394
g82
sS'FILTER'
p395
g166
sS'start'
p396
I10646
sS'samples'
p397
(lp398
g0
(g170
g2
Ntp399
Rp400
(dp401
S'sample'
p402
g390
sS'gt_nums'
p403
S'1/1'
p404
sS'data'
p405
(dp406
S'GL'
p407
(lp408
F-96.334800000000001
aF-8.1278100000000002
aF0.0
asS'AO'
p409
I27
sS'QA'
p410
I1066
sS'GT'
p411
g404
sS'RO'
p412
I0
sS'DP'
p413
I27
sS'QR'
p414
I0
ssS'site'
p415
g321
sS'called'
p416
I01
sbag0
(g170
g2
Ntp417
Rp418
(dp419
g402
g392
sg403
S'1/1'
p420
sg405
(dp421
g407
(lp422
F-94.979299999999995
aF-8.1278100000000002
aF0.0
asg409
I27
sg410
I1051
sg411
g420
sg412
I0
sg413
I27
sg414
I0
ssg415
g321
sg416
I01
sbag0
(g170
g2
Ntp423
Rp424
(dp425
g402
g391
sg403
S'1/1'
p426
sg405
(dp427
g407
(lp428
F-350.55000000000001
aF-32.511200000000002
aF0.0
asg409
I108
sg410
I3905
sg411
g426
sg412
I0
sg413
I108
sg414
I0
ssg415
g321
sg416
I01
sbasS'ALT'
p429
(lp430
g77
asS'REF'
p431
g79
sS'ID'
p432
NsS'QUAL'
p433
F5418.6400000000003
sbag321
ag321
ag0
(g89
g2
Ntp434
Rp435
(dp436
g323
(dp437
S'technology.illumina'
p438
(lp439
F1.0
asS'EPP'
p440
(lp441
F19.462599999999998
asS'AF'
p442
(lp443
F0.83333299999999999
asS'MQMR'
p444
F43.441899999999997
sS'DP'
p445
I154
sS'RPP'
p446
(lp447
F19.462599999999998
asS'EPPR'
p448
F3.4647899999999998
sS'ODDS'
p449
F9.9271999999999991
sS'HWE'
p450
F-10.969099999999999
sS'MQM'
p451
(lp452
F43.558599999999998
asS'PAIREDR'
p453
F0.53488400000000003
sS'PAIRED'
p454
(lp455
F0.69369400000000003
asS'XRS'
p456
F0.00046306299999999999
sS'SAP'
p457
(lp458
F4.5948900000000004
asS'XRM'
p459
F0.00046306299999999999
sS'RO'
p460
I43
sS'AC'
p461
(lp462
I5
asS'AB'
p463
(lp464
F0.60185200000000005
asS'XRI'
p465
F0.0
sS'BVAR'
p466
I01
sS'MEANALT'
p467
(lp468
F1.0
asS'XAS'
p469
(lp470
F0.00024198700000000001
asS'AO'
p471
(lp472
I111
asS'AN'
p473
I6
sS'ABP'
p474
(lp475
F12.7417
asS'XAI'
p476
(lp477
F0.000135072
asS'SRP'
p478
F3.0608
sS'XAM'
p479
(lp480
F0.00037705900000000001
asS'DPRA'
p481
(lp482
F0.0
asS'EFF'
p483
S'NON_SYNONYMOUS_CODING(MODERATE|MISSENSE|gCg/gTg|A45V|dnaJ|mRNA||dnaJ.t01|Exon_U00096_14168_15298)'
p484
sS'RPPR'
p485
F87.899699999999996
sS'NS'
p486
I3
sS'RUN'
p487
(lp488
I1
asS'CIGAR'
p489
S'1X'
p490
sS'LEN'
p491
(lp492
I1
asS'NUMALT'
p493
I1
sS'TYPE'
p494
S'snp'
p495
ssg383
I14301
sg384
S'GT:DP:RO:QR:AO:QA:GL'
p496
sg386
(lp497
g78
ag75
asg388
g389
sg393
I14301
sg394
g83
sg395
g166
sg396
I14300
sg397
(lp498
g0
(g170
g2
Ntp499
Rp500
(dp501
g402
g390
sg403
S'1/1'
p502
sg405
(dp503
S'GL'
p504
(lp505
F-43.089300000000001
aF-4.2144199999999996
aF0.0
asS'AO'
p506
I14
sS'QA'
p507
I475
sS'GT'
p508
g502
sS'RO'
p509
I0
sS'DP'
p510
I14
sS'QR'
p511
I0
ssg415
g435
sg416
I01
sbag0
(g170
g2
Ntp512
Rp513
(dp514
g402
g392
sg403
S'1/1'
p515
sg405
(dp516
g504
(lp517
F-101.873
aF-9.6329600000000006
aF0.0
asg506
I32
sg507
I1128
sg508
g515
sg509
I0
sg510
I32
sg511
I0
ssg415
g435
sg416
I01
sbag0
(g170
g2
Ntp518
Rp519
(dp520
g402
g391
sg403
S'0/1'
p521
sg405
(dp522
g504
(lp523
F-199.691
aF-2.0866199999999999
aF-135.97999999999999
asg506
I65
sg507
I2215
sg508
g521
sg509
I43
sg510
I108
sg511
I1507
ssg415
g435
sg416
I01
sbasg429
(lp524
g75
asg431
g78
sg432
Nsg433
F3420.8899999999999
sbag435
ag435
ag0
(g89
g2
Ntp525
Rp526
(dp527
S'INFO'
p528
(dp529
S'technology.illumina'
p530
(lp531
F1.0
asS'EPP'
p532
(lp533
F12.739800000000001
asS'AF'
p534
(lp535
F1.0
asS'MQMR'
p536
F0.0
sS'DP'
p537
I259
sS'RPP'
p538
(lp539
F13.918200000000001
asS'EPPR'
p540
F0.0
sS'ODDS'
p541
F18.427299999999999
sS'HWE'
p542
F-0.0
sS'MQM'
p543
(lp544
F43.476700000000001
asS'PAIREDR'
p545
F0.0
sS'PAIRED'
p546
(lp547
F0.68217099999999997
asS'XRS'
p548
F0.0
sS'SAP'
p549
(lp550
F3.5489600000000001
asS'XRM'
p551
F0.0
sS'RO'
p552
I0
sS'AC'
p553
(lp554
I6
asS'AB'
p555
(lp556
F0.0
asS'XRI'
p557
F0.0
sS'BVAR'
p558
I01
sS'MEANALT'
p559
(lp560
F1.3333299999999999
asS'XAS'
p561
(lp562
F0.00038763099999999999
asS'AO'
p563
(lp564
I258
asS'AN'
p565
I6
sS'ABP'
p566
(lp567
F0.0
asS'XAI'
p568
(lp569
F0.000103108
asS'SRP'
p570
F0.0
sS'XAM'
p571
(lp572
F0.00049073900000000002
asS'DPRA'
p573
(lp574
F0.0
asS'EFF'
p575
S'INTRON(MODIFIER||||insA|mRNA||insA.t01|),INTRON(MODIFIER||||insB|mRNA||insB.t01|),INTRON(MODIFIER||||insL|mRNA||insL.t01|),NON_SYNONYMOUS_CODING(MODERATE|MISSENSE|gTt/gCt|V369A|surA|mRNA||surA.t01|Exon_U00096_53416_54702)'
p576
sS'RPPR'
p577
F0.0
sS'NS'
p578
I3
sS'RUN'
p579
(lp580
I1
asS'CIGAR'
p581
S'1X'
p582
sS'LEN'
p583
(lp584
I1
asS'NUMALT'
p585
I1
sS'TYPE'
p586
S'snp'
p587
ssS'end'
p588
I53597
sS'FORMAT'
p589
S'GT:DP:RO:QR:AO:QA:GL'
p590
sS'alleles'
p591
(lp592
g79
ag77
asS'_sample_indexes'
p593
(dp594
S'recoli_lib3_c31_322A'
p595
I0
sS'recoli_misq_c31_322A'
p596
I2
sS'recoli_lib3_c31_322B'
p597
I1
ssS'POS'
p598
I53597
sS'CHROM'
p599
g84
sS'FILTER'
p600
g166
sS'start'
p601
I53596
sS'samples'
p602
(lp603
g0
(g170
g2
Ntp604
Rp605
(dp606
S'sample'
p607
g595
sS'gt_nums'
p608
S'1/1'
p609
sS'data'
p610
(dp611
S'GL'
p612
(lp613
F-90.400000000000006
aF-7.5257500000000004
aF0.0
asS'AO'
p614
I25
sS'QA'
p615
I1000
sS'GT'
p616
g609
sS'RO'
p617
I0
sS'DP'
p618
I25
sS'QR'
p619
I0
ssS'site'
p620
g526
sS'called'
p621
I01
sbag0
(g170
g2
Ntp622
Rp623
(dp624
g607
g597
sg608
S'1/1'
p625
sg610
(dp626
g612
(lp627
F-157.08600000000001
aF-13.2453
aF0.0
asg614
I44
sg615
I1741
sg616
g625
sg617
I0
sg618
I44
sg619
I0
ssg620
g526
sg621
I01
sbag0
(g170
g2
Ntp628
Rp629
(dp630
g607
g596
sg608
S'1/1'
p631
sg610
(dp632
g612
(lp633
F-623.97500000000002
aF-60.294699999999999
aF-3.3999999999999999
asg614
I189
sg615
I6900
sg616
g631
sg617
I0
sg618
I190
sg619
I0
ssg620
g526
sg621
I01
sbasS'ALT'
p634
(lp635
g77
asS'REF'
p636
g79
sS'ID'
p637
NsS'QUAL'
p638
F8680.6000000000004
sbag526
ag526
ag0
(g89
g2
Ntp639
Rp640
(dp641
S'INFO'
p642
(dp643
S'technology.illumina'
p644
(lp645
F1.0
asS'EPP'
p646
(lp647
F5.9664200000000003
asS'AF'
p648
(lp649
F1.0
asS'MQMR'
p650
F44.0
sS'DP'
p651
I239
sS'RPP'
p652
(lp653
F12.3531
asS'EPPR'
p654
F5.1817700000000002
sS'ODDS'
p655
F9.7115899999999993
sS'HWE'
p656
F-0.0
sS'MQM'
p657
(lp658
F43.344499999999996
asS'PAIREDR'
p659
F1.0
sS'PAIRED'
p660
(lp661
F0.65546199999999999
asS'XRS'
p662
F0.0
sS'SAP'
p663
(lp664
F4.3241300000000003
asS'XRM'
p665
F0.0
sS'RO'
p666
I1
sS'AC'
p667
(lp668
I6
asS'AB'
p669
(lp670
F0.0
asS'XRI'
p671
F0.0
sS'BVAR'
p672
I01
sS'MEANALT'
p673
(lp674
F1.0
asS'XAS'
p675
(lp676
F0.00054878499999999998
asS'AO'
p677
(lp678
I238
asS'AN'
p679
I6
sS'ABP'
p680
(lp681
F0.0
asS'XAI'
p682
(lp683
F9.5878700000000001e-05
asS'SRP'
p684
F5.1817700000000002
sS'XAM'
p685
(lp686
F0.00064466299999999996
asS'DPRA'
p687
(lp688
F0.0
asS'EFF'
p689
S'INTRON(MODIFIER||||insA|mRNA||insA.t01|),INTRON(MODIFIER||||insB|mRNA||insB.t01|),INTRON(MODIFIER||||insL|mRNA||insL.t01|),UPSTREAM(MODIFIER||||caiE|mRNA||caiE.t01|)'
p690
sS'RPPR'
p691
F5.1817700000000002
sS'NS'
p692
I3
sS'RUN'
p693
(lp694
I1
asS'CIGAR'
p695
S'1X'
p696
sS'LEN'
p697
(lp698
I1
asS'NUMALT'
p699
I1
sS'TYPE'
p700
S'snp'
p701
ssS'end'
p702
I35373
sS'FORMAT'
p703
S'GT:DP:RO:QR:AO:QA:GL'
p704
sS'alleles'
p705
(lp706
g77
ag78
asS'_sample_indexes'
p707
(dp708
S'recoli_lib3_c31_322A'
p709
I0
sS'recoli_misq_c31_322A'
p710
I2
sS'recoli_lib3_c31_322B'
p711
I1
ssS'POS'
p712
I35373
sS'CHROM'
p713
g85
sS'FILTER'
p714
g166
sS'start'
p715
I35372
sS'samples'
p716
(lp717
g0
(g170
g2
Ntp718
Rp719
(dp720
S'sample'
p721
g709
sS'gt_nums'
p722
S'1/1'
p723
sS'data'
p724
(dp725
S'GL'
p726
(lp727
F-107.316
aF-7.8405699999999996
aF-4.0999999999999996
asS'AO'
p728
I30
sS'QA'
p729
I1188
sS'GT'
p730
g723
sS'RO'
p731
I1
sS'DP'
p732
I31
sS'QR'
p733
I41
ssS'site'
p734
g640
sS'called'
p735
I01
sbag0
(g170
g2
Ntp736
Rp737
(dp738
g721
g711
sg722
S'1/1'
p739
sg724
(dp740
g726
(lp741
F-120.983
aF-10.536
aF0.0
asg728
I35
sg729
I1340
sg730
g739
sg731
I0
sg732
I35
sg733
I0
ssg734
g640
sg735
I01
sbag0
(g170
g2
Ntp742
Rp743
(dp744
g721
g710
sg722
S'1/1'
p745
sg724
(dp746
g726
(lp747
F-555.47699999999998
aF-52.078200000000002
aF0.0
asg728
I173
sg729
I6181
sg730
g745
sg731
I0
sg732
I173
sg733
I0
ssg734
g640
sg735
I01
sbasS'ALT'
p748
(lp749
g78
asS'REF'
p750
g77
sS'ID'
p751
NsS'QUAL'
p752
F7796.75
sbag640
ag640
ag0
(g89
g2
Ntp753
Rp754
(dp755
S'INFO'
p756
(dp757
S'technology.illumina'
p758
(lp759
F1.0
asS'EPP'
p760
(lp761
F4.24038
asS'AF'
p762
(lp763
F1.0
asS'MQMR'
p764
F42.0
sS'DP'
p765
I349
sS'RPP'
p766
(lp767
F13.0518
asS'EPPR'
p768
F3.7341199999999999
sS'ODDS'
p769
F19.1204
sS'HWE'
p770
F-0.0
sS'MQM'
p771
(lp772
F43.465299999999999
asS'PAIREDR'
p773
F0.0
sS'PAIRED'
p774
(lp775
F0.66474
asS'XRS'
p776
F0.0022831100000000001
sS'SAP'
p777
(lp778
F3.9140299999999999
asS'XRM'
p779
F0.0053134100000000002
sS'RO'
p780
I3
sS'AC'
p781
(lp782
I6
asS'AB'
p783
(lp784
F0.0
asS'XRI'
p785
F0.0030303000000000001
sS'BVAR'
p786
I01
sS'MEANALT'
p787
(lp788
F1.0
asS'XAS'
p789
(lp790
F0.00099359300000000008
asS'AO'
p791
(lp792
I346
asS'AN'
p793
I6
sS'ABP'
p794
(lp795
F0.0
asS'XAI'
p796
(lp797
F6.68506e-05
asS'SRP'
p798
F3.7341199999999999
sS'XAM'
p799
(lp800
F0.00106044
asS'DPRA'
p801
(lp802
F0.0
asS'EFF'
p803
S'INTRON(MODIFIER||||insA|mRNA||insA.t01|),INTRON(MODIFIER||||insB|mRNA||insB.t01|),INTRON(MODIFIER||||insL|mRNA||insL.t01|),NON_SYNONYMOUS_CODING(MODERATE|MISSENSE|aGc/aAc|S3N|kefC|mRNA||kefC.t01|Exon_U00096_47769_49631),SYNONYMOUS_STOP(LOW|SILENT|taG/taA|*177|kefF|mRNA||kefF.t01|Exon_U00096_47246_47776)'
p804
sS'RPPR'
p805
F9.5247200000000003
sS'NS'
p806
I3
sS'RUN'
p807
(lp808
I1
asS'CIGAR'
p809
S'1X'
p810
sS'LEN'
p811
(lp812
I1
asS'NUMALT'
p813
I1
sS'TYPE'
p814
S'snp'
p815
ssS'end'
p816
I47776
sS'FORMAT'
p817
S'GT:DP:RO:QR:AO:QA:GL'
p818
sS'alleles'
p819
(lp820
g77
ag79
asS'_sample_indexes'
p821
(dp822
S'recoli_lib3_c31_322A'
p823
I0
sS'recoli_misq_c31_322A'
p824
I2
sS'recoli_lib3_c31_322B'
p825
I1
ssS'POS'
p826
I47776
sS'CHROM'
p827
g86
sS'FILTER'
p828
g166
sS'start'
p829
I47775
sS'samples'
p830
(lp831
g0
(g170
g2
Ntp832
Rp833
(dp834
S'sample'
p835
g823
sS'gt_nums'
p836
S'1/1'
p837
sS'data'
p838
(dp839
S'GL'
p840
(lp841
F-87.763499999999993
aF-7.8267800000000003
aF0.0
asS'AO'
p842
I26
sS'QA'
p843
I971
sS'GT'
p844
g837
sS'RO'
p845
I0
sS'DP'
p846
I26
sS'QR'
p847
I0
ssS'site'
p848
g754
sS'called'
p849
I01
sbag0
(g170
g2
Ntp850
Rp851
(dp852
g835
g825
sg836
S'1/1'
p853
sg838
(dp854
g840
(lp855
F-186.142
aF-16.255600000000001
aF0.0
asg842
I54
sg843
I2069
sg844
g853
sg845
I0
sg846
I54
sg847
I0
ssg848
g754
sg849
I01
sbag0
(g170
g2
Ntp856
Rp857
(dp858
g835
g824
sg836
S'1/1'
p859
sg838
(dp860
g840
(lp861
F-832.48800000000006
aF-74.470799999999997
aF-9.6133299999999995
asg842
I266
sg843
I9259
sg844
g859
sg845
I3
sg846
I269
sg847
I103
ssg848
g754
sg849
I01
sbasS'ALT'
p862
(lp863
g79
asS'REF'
p864
g77
sS'ID'
p865
NsS'QUAL'
p866
F10967.799999999999
sbag754
ag754
ag0
(g89
g2
Ntp867
Rp868
(dp869
g756
(dp870
S'technology.illumina'
p871
(lp872
F1.0
asS'EPP'
p873
(lp874
F24.031600000000001
asS'AF'
p875
(lp876
F1.0
asS'MQMR'
p877
F42.0
sS'DP'
p878
I240
sS'RPP'
p879
(lp880
F4.7985699999999998
asS'EPPR'
p881
F3.0103
sS'ODDS'
p882
F23.279299999999999
sS'HWE'
p883
F-0.0
sS'MQM'
p884
(lp885
F43.104999999999997
asS'PAIREDR'
p886
F0.0
sS'PAIRED'
p887
(lp888
F0.60924400000000001
asS'XRS'
p889
F0.0
sS'SAP'
p890
(lp891
F5.3460000000000001
asS'XRM'
p892
F0.0
sS'RO'
p893
I2
sS'AC'
p894
(lp895
I6
asS'AB'
p896
(lp897
F0.0
asS'XRI'
p898
F0.0
sS'BVAR'
p899
I01
sS'MEANALT'
p900
(lp901
F1.0
asS'XAS'
p902
(lp903
F0.000742893
asS'AO'
p904
(lp905
I238
asS'AN'
p906
I6
sS'ABP'
p907
(lp908
F0.0
asS'XAI'
p909
(lp910
F9.6975199999999999e-05
asS'SRP'
p911
F3.0103
sS'XAM'
p912
(lp913
F0.00083986800000000002
asS'DPRA'
p914
(lp915
F0.0
asS'EFF'
p916
S'INTRON(MODIFIER||||insA|mRNA||insA.t01|),INTRON(MODIFIER||||insB|mRNA||insB.t01|),INTRON(MODIFIER||||insL|mRNA||insL.t01|)'
p917
sS'RPPR'
p918
F7.3532400000000004
sS'NS'
p919
I3
sS'RUN'
p920
(lp921
I1
asS'CIGAR'
p922
S'1X'
p923
sS'LEN'
p924
(lp925
I1
asS'NUMALT'
p926
I1
sS'TYPE'
p927
S'snp'
p928
ssg816
I49765
sg817
S'GT:DP:RO:QR:AO:QA:GL'
p929
sg819
(lp930
g78
ag75
asg821
g822
sg826
I49765
sg827
g87
sg828
g166
sg829
I49764
sg830
(lp931
g0
(g170
g2
Ntp932
Rp933
(dp934
g835
g823
sg836
S'1/1'
p935
sg838
(dp936
S'GL'
p937
(lp938
F-111.717
aF-9.6329600000000006
aF0.0
asS'AO'
p939
I32
sS'QA'
p940
I1237
sS'GT'
p941
g935
sS'RO'
p942
I0
sS'DP'
p943
I32
sS'QR'
p944
I0
ssg848
g868
sg849
I01
sbag0
(g170
g2
Ntp945
Rp946
(dp947
g835
g825
sg836
S'1/1'
p948
sg838
(dp949
g937
(lp950
F-179.047
aF-15.051500000000001
aF0.0
asg939
I50
sg940
I1985
sg941
g948
sg942
I0
sg943
I50
sg944
I0
ssg848
g868
sg849
I01
sbag0
(g170
g2
Ntp951
Rp952
(dp953
g835
g824
sg836
S'1/1'
p954
sg838
(dp955
g937
(lp956
F-508.142
aF-43.469200000000001
aF-6.6500000000000004
asg939
I156
sg940
I5676
sg941
g954
sg942
I2
sg943
I158
sg944
I70
ssg848
g868
sg849
I01
sbasg862
(lp957
g75
asg864
g78
sg865
Nsg866
F7922.5500000000002
sbag868
ag868
ag0
(g89
g2
Ntp958
Rp959
(dp960
S'INFO'
p961
(dp962
S'technology.illumina'
p963
(lp964
F1.0
asS'EPP'
p965
(lp966
F3.3614600000000001
asS'AF'
p967
(lp968
F1.0
asS'MQMR'
p969
F0.0
sS'DP'
p970
I303
sS'RPP'
p971
(lp972
F9.8973800000000001
asS'EPPR'
p973
F0.0
sS'ODDS'
p974
F26.0519
sS'HWE'
p975
F-0.0
sS'MQM'
p976
(lp977
F43.438899999999997
asS'PAIREDR'
p978
F0.0
sS'PAIRED'
p979
(lp980
F0.64026400000000006
asS'XRS'
p981
F0.0
sS'SAP'
p982
(lp983
F11.789400000000001
asS'XRM'
p984
F0.0
sS'RO'
p985
I0
sS'AC'
p986
(lp987
I6
asS'AB'
p988
(lp989
F0.0
asS'XRI'
p990
F0.0
sS'BVAR'
p991
I01
sS'MEANALT'
p992
(lp993
F1.0
asS'XAS'
p994
(lp995
F0.00059743100000000005
asS'AO'
p996
(lp997
I303
asS'AN'
p998
I6
sS'ABP'
p999
(lp1000
F0.0
asS'XAI'
p1001
(lp1002
F4.9629000000000002e-05
asS'SRP'
p1003
F0.0
sS'XAM'
p1004
(lp1005
F0.00064705999999999997
asS'DPRA'
p1006
(lp1007
F0.0
asS'EFF'
p1008
S'INTRON(MODIFIER||||insA|mRNA||insA.t01|),INTRON(MODIFIER||||insB|mRNA||insB.t01|),INTRON(MODIFIER||||insL|mRNA||insL.t01|),SYNONYMOUS_CODING(LOW|SILENT|ccT/ccC|P322|carA|mRNA||carA.t01|Exon_U00096_29651_30799)'
p1009
sS'RPPR'
p1010
F0.0
sS'NS'
p1011
I3
sS'RUN'
p1012
(lp1013
I1
asS'CIGAR'
p1014
S'1X'
p1015
sS'LEN'
p1016
(lp1017
I1
asS'NUMALT'
p1018
I1
sS'TYPE'
p1019
S'snp'
p1020
ssS'end'
p1021
I30616
sS'FORMAT'
p1022
S'GT:DP:RO:QR:AO:QA:GL'
p1023
sS'alleles'
p1024
(lp1025
g75
ag78
asS'_sample_indexes'
p1026
(dp1027
S'recoli_lib3_c31_322A'
p1028
I0
sS'recoli_misq_c31_322A'
p1029
I2
sS'recoli_lib3_c31_322B'
p1030
I1
ssS'POS'
p1031
I30616
sS'CHROM'
p1032
g88
sS'FILTER'
p1033
g166
sS'start'
p1034
I30615
sS'samples'
p1035
(lp1036
g0
(g170
g2
Ntp1037
Rp1038
(dp1039
S'sample'
p1040
g1028
sS'gt_nums'
p1041
S'1/1'
p1042
sS'data'
p1043
(dp1044
S'GL'
p1045
(lp1046
F-130.0
aF-10.8371
aF0.0
asS'AO'
p1047
I36
sS'QA'
p1048
I1440
sS'GT'
p1049
g1042
sS'RO'
p1050
I0
sS'DP'
p1051
I36
sS'QR'
p1052
I0
ssS'site'
p1053
g959
sS'called'
p1054
I01
sbag0
(g170
g2
Ntp1055
Rp1056
(dp1057
g1040
g1030
sg1041
S'1/1'
p1058
sg1043
(dp1059
g1045
(lp1060
F-142.14400000000001
aF-12.0412
aF0.0
asg1047
I40
sg1048
I1575
sg1049
g1058
sg1050
I0
sg1051
I40
sg1052
I0
ssg1053
g959
sg1054
I01
sbag0
(g170
g2
Ntp1061
Rp1062
(dp1063
g1040
g1029
sg1041
S'1/1'
p1064
sg1043
(dp1065
g1045
(lp1066
F-729.89700000000005
aF-68.333799999999997
aF0.0
asg1047
I227
sg1048
I8120
sg1049
g1064
sg1050
I0
sg1051
I227
sg1052
I0
ssg1053
g959
sg1054
I01
sbasS'ALT'
p1067
(lp1068
g78
asS'REF'
p1069
g75
sS'ID'
p1070
NsS'QUAL'
p1071
F10020.4
sbag959
ag959
ag78
ag78
ag78
ag78
ag78
ag78
ag79
ag79
ag79
ag78
ag78
ag78
ag79
ag79
ag79
ag77
ag77
ag77
ag77
ag77
ag77
ag78
ag78
ag78
ag75
ag75
ag75
ag160
ag162
ag161
ag160
ag162
ag161
ag160
ag162
ag161
ag160
ag162
ag161
ag160
ag162
ag161
ag160
ag162
ag161
ag160
ag162
ag161
ag160
ag162
ag161
ag160
ag162
ag161
aS'ts'
p1072
ag1072
ag1072
aS'ins'
p1073
ag1073
ag1073
ag1072
ag1072
ag1072
ag1072
ag1072
ag1072
ag1072
ag1072
ag1072
aS'tv'
p1074
ag1074
ag1074
ag1072
ag1072
ag1072
ag1072
ag1072
ag1072
ag1072
ag1072
ag1072
aS'U00096\t28269\t.\tC\tT\t9612.76\t.\ttechnology.illumina=1.0;EPP=14.3602;AF=1.0;MQMR=44.0;DP=295;RPP=6.30109;EPPR=5.18177;ODDS=22.5862;HWE=-0.0;MQM=43.1753;PAIREDR=1.0;PAIRED=0.604811;XRS=0.0;SAP=3.01776;XRM=0.0;RO=1;AC=6;AB=0.0;XRI=0.0;BVAR=True;MEANALT=1.66667;XAS=0.000320688;AO=291;AN=6;ABP=0.0;XAI=0.000102422;SRP=5.18177;XAM=0.000423111;DPRA=0.0;EFF=INTRON(MODIFIER||||insA|mRNA||insA.t01|),INTRON(MODIFIER||||insB|mRNA||insB.t01|),INTRON(MODIFIER||||insL|mRNA||insL.t01|);RPPR=5.18177;NS=3;RUN=1;CIGAR=1X;LEN=1;NUMALT=1;TYPE=snp\tGT:DP:RO:QR:AO:QA:GL\t1/1:31:0:0:31:1194:-107.845,-9.33193,0.0\t1/1:44:0:0:44:1719:-155.101,-13.2453,0.0\t1/1:220:1:32:216:7834:-710.911,-72.6937,-12.58\n'
p1075
ag1075
ag1075
aS'U00096\t7922\t.\tC\tCA\t10179.8\t.\ttechnology.illumina=1.0;EPP=5.43329;AF=0.666667;MQMR=44.0;DP=284;RPP=6.03695;EPPR=4.58955;ODDS=23.948;HWE=-3.0103;MQM=45.1429;PAIREDR=0.863636;PAIRED=0.594595;XRS=0.000703269;SAP=3.42112;XRM=0.000703269;RO=22;AC=4;AB=0.813333;XRI=0.0;BVAR=True;MEANALT=1.33333;XAS=0.000733786;AO=259;AN=6;ABP=66.9674;XAI=6.06104e-05;SRP=4.58955;XAM=0.000794397;DPRA=0.0;EFF=FRAME_SHIFT(HIGH||||yaaJ|mRNA||yaaJ.t01|Exon_U00096_6529_7959);RPPR=50.7827;NS=3;RUN=1;CIGAR=1M1I;LEN=1;NUMALT=1;TYPE=ins\tGT:DP:RO:QR:AO:QA:GL\t0/1:28:4:158:24:2759:-111.755,-4.11762,-14.615\t0/1:47:10:393:37:4254:-175.666,-4.43424,-35.763\t1/1:209:8:292:198:20024:-775.599,-57.7799,-35.9091\n'
p1076
ag1076
ag1076
aS'U00096\t10647\t.\tA\tG\t5418.64\t.\ttechnology.illumina=1.0;EPP=10.7311;AF=1.0;MQMR=0.0;DP=162;RPP=20.3821;EPPR=0.0;ODDS=19.8136;HWE=-0.0;MQM=43.2531;PAIREDR=0.0;PAIRED=0.67284;XRS=0.0;SAP=36.5207;XRM=0.0;RO=0;AC=6;AB=0.0;XRI=0.0;BVAR=True;MEANALT=1.0;XAS=0.000650726;AO=162;AN=6;ABP=0.0;XAI=0.0;SRP=0.0;XAM=0.000650726;DPRA=0.0;EFF=NON_SYNONYMOUS_CODING(MODERATE|MISSENSE|gTc/gCc|V237A|yaaW|mRNA||yaaW.t01|Exon_U00096_10643_11356);RPPR=0.0;NS=3;RUN=1;CIGAR=1X;LEN=1;NUMALT=1;TYPE=snp\tGT:DP:RO:QR:AO:QA:GL\t1/1:27:0:0:27:1066:-96.3348,-8.12781,0.0\t1/1:27:0:0:27:1051:-94.9793,-8.12781,0.0\t1/1:108:0:0:108:3905:-350.55,-32.5112,0.0\n'
p1077
ag1077
ag1077
aS'U00096\t14301\t.\tC\tT\t3420.89\t.\ttechnology.illumina=1.0;EPP=19.4626;AF=0.833333;MQMR=43.4419;DP=154;RPP=19.4626;EPPR=3.46479;ODDS=9.9272;HWE=-10.9691;MQM=43.5586;PAIREDR=0.534884;PAIRED=0.693694;XRS=0.000463063;SAP=4.59489;XRM=0.000463063;RO=43;AC=5;AB=0.601852;XRI=0.0;BVAR=True;MEANALT=1.0;XAS=0.000241987;AO=111;AN=6;ABP=12.7417;XAI=0.000135072;SRP=3.0608;XAM=0.000377059;DPRA=0.0;EFF=NON_SYNONYMOUS_CODING(MODERATE|MISSENSE|gCg/gTg|A45V|dnaJ|mRNA||dnaJ.t01|Exon_U00096_14168_15298);RPPR=87.8997;NS=3;RUN=1;CIGAR=1X;LEN=1;NUMALT=1;TYPE=snp\tGT:DP:RO:QR:AO:QA:GL\t1/1:14:0:0:14:475:-43.0893,-4.21442,0.0\t1/1:32:0:0:32:1128:-101.873,-9.63296,0.0\t0/1:108:43:1507:65:2215:-199.691,-2.08662,-135.98\n'
p1078
ag1078
ag1078
aS'U00096\t53597\t.\tA\tG\t8680.6\t.\ttechnology.illumina=1.0;EPP=12.7398;AF=1.0;MQMR=0.0;DP=259;RPP=13.9182;EPPR=0.0;ODDS=18.4273;HWE=-0.0;MQM=43.4767;PAIREDR=0.0;PAIRED=0.682171;XRS=0.0;SAP=3.54896;XRM=0.0;RO=0;AC=6;AB=0.0;XRI=0.0;BVAR=True;MEANALT=1.33333;XAS=0.000387631;AO=258;AN=6;ABP=0.0;XAI=0.000103108;SRP=0.0;XAM=0.000490739;DPRA=0.0;EFF=INTRON(MODIFIER||||insA|mRNA||insA.t01|),INTRON(MODIFIER||||insB|mRNA||insB.t01|),INTRON(MODIFIER||||insL|mRNA||insL.t01|),NON_SYNONYMOUS_CODING(MODERATE|MISSENSE|gTt/gCt|V369A|surA|mRNA||surA.t01|Exon_U00096_53416_54702);RPPR=0.0;NS=3;RUN=1;CIGAR=1X;LEN=1;NUMALT=1;TYPE=snp\tGT:DP:RO:QR:AO:QA:GL\t1/1:25:0:0:25:1000:-90.4,-7.52575,0.0\t1/1:44:0:0:44:1741:-157.086,-13.2453,0.0\t1/1:190:0:0:189:6900:-623.975,-60.2947,-3.4\n'
p1079
ag1079
ag1079
aS'U00096\t35373\t.\tG\tC\t7796.75\t.\ttechnology.illumina=1.0;EPP=5.96642;AF=1.0;MQMR=44.0;DP=239;RPP=12.3531;EPPR=5.18177;ODDS=9.71159;HWE=-0.0;MQM=43.3445;PAIREDR=1.0;PAIRED=0.655462;XRS=0.0;SAP=4.32413;XRM=0.0;RO=1;AC=6;AB=0.0;XRI=0.0;BVAR=True;MEANALT=1.0;XAS=0.000548785;AO=238;AN=6;ABP=0.0;XAI=9.58787e-05;SRP=5.18177;XAM=0.000644663;DPRA=0.0;EFF=INTRON(MODIFIER||||insA|mRNA||insA.t01|),INTRON(MODIFIER||||insB|mRNA||insB.t01|),INTRON(MODIFIER||||insL|mRNA||insL.t01|),UPSTREAM(MODIFIER||||caiE|mRNA||caiE.t01|);RPPR=5.18177;NS=3;RUN=1;CIGAR=1X;LEN=1;NUMALT=1;TYPE=snp\tGT:DP:RO:QR:AO:QA:GL\t1/1:31:1:41:30:1188:-107.316,-7.84057,-4.1\t1/1:35:0:0:35:1340:-120.983,-10.536,0.0\t1/1:173:0:0:173:6181:-555.477,-52.0782,0.0\n'
p1080
ag1080
ag1080
aS'U00096\t47776\t.\tG\tA\t10967.8\t.\ttechnology.illumina=1.0;EPP=4.24038;AF=1.0;MQMR=42.0;DP=349;RPP=13.0518;EPPR=3.73412;ODDS=19.1204;HWE=-0.0;MQM=43.4653;PAIREDR=0.0;PAIRED=0.66474;XRS=0.00228311;SAP=3.91403;XRM=0.00531341;RO=3;AC=6;AB=0.0;XRI=0.0030303;BVAR=True;MEANALT=1.0;XAS=0.000993593;AO=346;AN=6;ABP=0.0;XAI=6.68506e-05;SRP=3.73412;XAM=0.00106044;DPRA=0.0;EFF=INTRON(MODIFIER||||insA|mRNA||insA.t01|),INTRON(MODIFIER||||insB|mRNA||insB.t01|),INTRON(MODIFIER||||insL|mRNA||insL.t01|),NON_SYNONYMOUS_CODING(MODERATE|MISSENSE|aGc/aAc|S3N|kefC|mRNA||kefC.t01|Exon_U00096_47769_49631),SYNONYMOUS_STOP(LOW|SILENT|taG/taA|*177|kefF|mRNA||kefF.t01|Exon_U00096_47246_47776);RPPR=9.52472;NS=3;RUN=1;CIGAR=1X;LEN=1;NUMALT=1;TYPE=snp\tGT:DP:RO:QR:AO:QA:GL\t1/1:26:0:0:26:971:-87.7635,-7.82678,0.0\t1/1:54:0:0:54:2069:-186.142,-16.2556,0.0\t1/1:269:3:103:266:9259:-832.488,-74.4708,-9.61333\n'
p1081
ag1081
ag1081
aS'U00096\t49765\t.\tC\tT\t7922.55\t.\ttechnology.illumina=1.0;EPP=24.0316;AF=1.0;MQMR=42.0;DP=240;RPP=4.79857;EPPR=3.0103;ODDS=23.2793;HWE=-0.0;MQM=43.105;PAIREDR=0.0;PAIRED=0.609244;XRS=0.0;SAP=5.346;XRM=0.0;RO=2;AC=6;AB=0.0;XRI=0.0;BVAR=True;MEANALT=1.0;XAS=0.000742893;AO=238;AN=6;ABP=0.0;XAI=9.69752e-05;SRP=3.0103;XAM=0.000839868;DPRA=0.0;EFF=INTRON(MODIFIER||||insA|mRNA||insA.t01|),INTRON(MODIFIER||||insB|mRNA||insB.t01|),INTRON(MODIFIER||||insL|mRNA||insL.t01|);RPPR=7.35324;NS=3;RUN=1;CIGAR=1X;LEN=1;NUMALT=1;TYPE=snp\tGT:DP:RO:QR:AO:QA:GL\t1/1:32:0:0:32:1237:-111.717,-9.63296,0.0\t1/1:50:0:0:50:1985:-179.047,-15.0515,0.0\t1/1:158:2:70:156:5676:-508.142,-43.4692,-6.65\n'
p1082
ag1082
ag1082
aS'U00096\t30616\t.\tT\tC\t10020.4\t.\ttechnology.illumina=1.0;EPP=3.36146;AF=1.0;MQMR=0.0;DP=303;RPP=9.89738;EPPR=0.0;ODDS=26.0519;HWE=-0.0;MQM=43.4389;PAIREDR=0.0;PAIRED=0.640264;XRS=0.0;SAP=11.7894;XRM=0.0;RO=0;AC=6;AB=0.0;XRI=0.0;BVAR=True;MEANALT=1.0;XAS=0.000597431;AO=303;AN=6;ABP=0.0;XAI=4.9629e-05;SRP=0.0;XAM=0.00064706;DPRA=0.0;EFF=INTRON(MODIFIER||||insA|mRNA||insA.t01|),INTRON(MODIFIER||||insB|mRNA||insB.t01|),INTRON(MODIFIER||||insL|mRNA||insL.t01|),SYNONYMOUS_CODING(LOW|SILENT|ccT/ccC|P322|carA|mRNA||carA.t01|Exon_U00096_29651_30799);RPPR=0.0;NS=3;RUN=1;CIGAR=1X;LEN=1;NUMALT=1;TYPE=snp\tGT:DP:RO:QR:AO:QA:GL\t1/1:36:0:0:36:1440:-130.0,-10.8371,0.0\t1/1:40:0:0:40:1575:-142.144,-12.0412,0.0\t1/1:227:0:0:227:8120:-729.897,-68.3338,0.0\n'
p1083
ag1083
ag1083
atp1084
ba(lp1085
g9
(g10
(I0
tp1086
g12
tp1087
Rp1088
((I1
(I2
tp1089
g19
I00
(lp1090
g24
ag27
atp1091
(Ntp1092
tp1093
bag9
(g10
(I0
tp1094
g12
tp1095
Rp1096
((I1
(I2
tp1097
g19
I00
(lp1098
g26
ag32
atp1099
(Ntp1100
tp1101
bag9
(g10
(I0
tp1102
g12
tp1103
Rp1104
((I1
(I7
tp1105
g19
I00
(lp1106
g23
ag25
ag28
ag29
ag30
ag31
ag33
atp1107
(Ntp1108
tp1109
batp1110
bb.